
integral_cos(x^2).exe:     file format pei-i386


Disassembly of section .text:

00401000 <___mingw_CRTStartup>:
  401000:	53                   	push   %ebx
  401001:	83 ec 38             	sub    $0x38,%esp
  401004:	a1 50 30 40 00       	mov    0x403050,%eax
  401009:	85 c0                	test   %eax,%eax
  40100b:	74 1c                	je     401029 <___mingw_CRTStartup+0x29>
  40100d:	c7 44 24 08 00 00 00 	movl   $0x0,0x8(%esp)
  401014:	00 
  401015:	c7 44 24 04 02 00 00 	movl   $0x2,0x4(%esp)
  40101c:	00 
  40101d:	c7 04 24 00 00 00 00 	movl   $0x0,(%esp)
  401024:	ff d0                	call   *%eax
  401026:	83 ec 0c             	sub    $0xc,%esp
  401029:	c7 04 24 10 11 40 00 	movl   $0x401110,(%esp)
  401030:	e8 03 0d 00 00       	call   401d38 <_SetUnhandledExceptionFilter@4>
  401035:	83 ec 04             	sub    $0x4,%esp
  401038:	e8 83 05 00 00       	call   4015c0 <___cpu_features_init>
  40103d:	e8 5e 06 00 00       	call   4016a0 <__fpreset>
  401042:	8d 44 24 2c          	lea    0x2c(%esp),%eax
  401046:	89 44 24 10          	mov    %eax,0x10(%esp)
  40104a:	a1 00 20 40 00       	mov    0x402000,%eax
  40104f:	c7 44 24 04 00 50 40 	movl   $0x405000,0x4(%esp)
  401056:	00 
  401057:	c7 04 24 04 50 40 00 	movl   $0x405004,(%esp)
  40105e:	c7 44 24 2c 00 00 00 	movl   $0x0,0x2c(%esp)
  401065:	00 
  401066:	89 44 24 0c          	mov    %eax,0xc(%esp)
  40106a:	8d 44 24 28          	lea    0x28(%esp),%eax
  40106e:	89 44 24 08          	mov    %eax,0x8(%esp)
  401072:	e8 49 0c 00 00       	call   401cc0 <___getmainargs>
  401077:	a1 18 50 40 00       	mov    0x405018,%eax
  40107c:	85 c0                	test   %eax,%eax
  40107e:	74 42                	je     4010c2 <___mingw_CRTStartup+0xc2>
  401080:	8b 1d 08 61 40 00    	mov    0x406108,%ebx
  401086:	a3 04 20 40 00       	mov    %eax,0x402004
  40108b:	89 44 24 04          	mov    %eax,0x4(%esp)
  40108f:	8b 43 10             	mov    0x10(%ebx),%eax
  401092:	89 04 24             	mov    %eax,(%esp)
  401095:	e8 2e 0c 00 00       	call   401cc8 <__setmode>
  40109a:	a1 18 50 40 00       	mov    0x405018,%eax
  40109f:	89 44 24 04          	mov    %eax,0x4(%esp)
  4010a3:	8b 43 30             	mov    0x30(%ebx),%eax
  4010a6:	89 04 24             	mov    %eax,(%esp)
  4010a9:	e8 1a 0c 00 00       	call   401cc8 <__setmode>
  4010ae:	a1 18 50 40 00       	mov    0x405018,%eax
  4010b3:	89 44 24 04          	mov    %eax,0x4(%esp)
  4010b7:	8b 43 50             	mov    0x50(%ebx),%eax
  4010ba:	89 04 24             	mov    %eax,(%esp)
  4010bd:	e8 06 0c 00 00       	call   401cc8 <__setmode>
  4010c2:	e8 09 0c 00 00       	call   401cd0 <___p__fmode>
  4010c7:	8b 15 04 20 40 00    	mov    0x402004,%edx
  4010cd:	89 10                	mov    %edx,(%eax)
  4010cf:	e8 4c 07 00 00       	call   401820 <__pei386_runtime_relocator>
  4010d4:	83 e4 f0             	and    $0xfffffff0,%esp
  4010d7:	e8 a4 09 00 00       	call   401a80 <___main>
  4010dc:	e8 f7 0b 00 00       	call   401cd8 <___p__environ>
  4010e1:	8b 00                	mov    (%eax),%eax
  4010e3:	89 44 24 08          	mov    %eax,0x8(%esp)
  4010e7:	a1 00 50 40 00       	mov    0x405000,%eax
  4010ec:	89 44 24 04          	mov    %eax,0x4(%esp)
  4010f0:	a1 04 50 40 00       	mov    0x405004,%eax
  4010f5:	89 04 24             	mov    %eax,(%esp)
  4010f8:	e8 37 02 00 00       	call   401334 <_main>
  4010fd:	89 c3                	mov    %eax,%ebx
  4010ff:	e8 dc 0b 00 00       	call   401ce0 <__cexit>
  401104:	89 1c 24             	mov    %ebx,(%esp)
  401107:	e8 34 0c 00 00       	call   401d40 <_ExitProcess@4>
  40110c:	8d 74 26 00          	lea    0x0(%esi,%eiz,1),%esi

00401110 <__gnu_exception_handler@4>:
  401110:	53                   	push   %ebx
  401111:	83 ec 28             	sub    $0x28,%esp
  401114:	8b 44 24 30          	mov    0x30(%esp),%eax
  401118:	8b 00                	mov    (%eax),%eax
  40111a:	8b 00                	mov    (%eax),%eax
  40111c:	3d 91 00 00 c0       	cmp    $0xc0000091,%eax
  401121:	77 3d                	ja     401160 <__gnu_exception_handler@4+0x50>
  401123:	3d 8d 00 00 c0       	cmp    $0xc000008d,%eax
  401128:	72 4d                	jb     401177 <__gnu_exception_handler@4+0x67>
  40112a:	bb 01 00 00 00       	mov    $0x1,%ebx
  40112f:	c7 44 24 04 00 00 00 	movl   $0x0,0x4(%esp)
  401136:	00 
  401137:	c7 04 24 08 00 00 00 	movl   $0x8,(%esp)
  40113e:	e8 a5 0b 00 00       	call   401ce8 <_signal>
  401143:	83 f8 01             	cmp    $0x1,%eax
  401146:	0f 84 f4 00 00 00    	je     401240 <__gnu_exception_handler@4+0x130>
  40114c:	85 c0                	test   %eax,%eax
  40114e:	0f 85 a0 00 00 00    	jne    4011f4 <__gnu_exception_handler@4+0xe4>
  401154:	31 c0                	xor    %eax,%eax
  401156:	83 c4 28             	add    $0x28,%esp
  401159:	5b                   	pop    %ebx
  40115a:	c2 04 00             	ret    $0x4
  40115d:	8d 76 00             	lea    0x0(%esi),%esi
  401160:	3d 94 00 00 c0       	cmp    $0xc0000094,%eax
  401165:	74 4b                	je     4011b2 <__gnu_exception_handler@4+0xa2>
  401167:	3d 96 00 00 c0       	cmp    $0xc0000096,%eax
  40116c:	74 17                	je     401185 <__gnu_exception_handler@4+0x75>
  40116e:	3d 93 00 00 c0       	cmp    $0xc0000093,%eax
  401173:	75 df                	jne    401154 <__gnu_exception_handler@4+0x44>
  401175:	eb b3                	jmp    40112a <__gnu_exception_handler@4+0x1a>
  401177:	3d 05 00 00 c0       	cmp    $0xc0000005,%eax
  40117c:	74 42                	je     4011c0 <__gnu_exception_handler@4+0xb0>
  40117e:	3d 1d 00 00 c0       	cmp    $0xc000001d,%eax
  401183:	75 cf                	jne    401154 <__gnu_exception_handler@4+0x44>
  401185:	c7 44 24 04 00 00 00 	movl   $0x0,0x4(%esp)
  40118c:	00 
  40118d:	c7 04 24 04 00 00 00 	movl   $0x4,(%esp)
  401194:	e8 4f 0b 00 00       	call   401ce8 <_signal>
  401199:	83 f8 01             	cmp    $0x1,%eax
  40119c:	74 69                	je     401207 <__gnu_exception_handler@4+0xf7>
  40119e:	85 c0                	test   %eax,%eax
  4011a0:	74 b2                	je     401154 <__gnu_exception_handler@4+0x44>
  4011a2:	c7 04 24 04 00 00 00 	movl   $0x4,(%esp)
  4011a9:	ff d0                	call   *%eax
  4011ab:	b8 ff ff ff ff       	mov    $0xffffffff,%eax
  4011b0:	eb a4                	jmp    401156 <__gnu_exception_handler@4+0x46>
  4011b2:	31 db                	xor    %ebx,%ebx
  4011b4:	e9 76 ff ff ff       	jmp    40112f <__gnu_exception_handler@4+0x1f>
  4011b9:	8d b4 26 00 00 00 00 	lea    0x0(%esi,%eiz,1),%esi
  4011c0:	c7 44 24 04 00 00 00 	movl   $0x0,0x4(%esp)
  4011c7:	00 
  4011c8:	c7 04 24 0b 00 00 00 	movl   $0xb,(%esp)
  4011cf:	e8 14 0b 00 00       	call   401ce8 <_signal>
  4011d4:	83 f8 01             	cmp    $0x1,%eax
  4011d7:	74 4a                	je     401223 <__gnu_exception_handler@4+0x113>
  4011d9:	85 c0                	test   %eax,%eax
  4011db:	0f 84 73 ff ff ff    	je     401154 <__gnu_exception_handler@4+0x44>
  4011e1:	c7 04 24 0b 00 00 00 	movl   $0xb,(%esp)
  4011e8:	ff d0                	call   *%eax
  4011ea:	b8 ff ff ff ff       	mov    $0xffffffff,%eax
  4011ef:	e9 62 ff ff ff       	jmp    401156 <__gnu_exception_handler@4+0x46>
  4011f4:	c7 04 24 08 00 00 00 	movl   $0x8,(%esp)
  4011fb:	ff d0                	call   *%eax
  4011fd:	b8 ff ff ff ff       	mov    $0xffffffff,%eax
  401202:	e9 4f ff ff ff       	jmp    401156 <__gnu_exception_handler@4+0x46>
  401207:	c7 44 24 04 01 00 00 	movl   $0x1,0x4(%esp)
  40120e:	00 
  40120f:	c7 04 24 04 00 00 00 	movl   $0x4,(%esp)
  401216:	e8 cd 0a 00 00       	call   401ce8 <_signal>
  40121b:	83 c8 ff             	or     $0xffffffff,%eax
  40121e:	e9 33 ff ff ff       	jmp    401156 <__gnu_exception_handler@4+0x46>
  401223:	c7 44 24 04 01 00 00 	movl   $0x1,0x4(%esp)
  40122a:	00 
  40122b:	c7 04 24 0b 00 00 00 	movl   $0xb,(%esp)
  401232:	e8 b1 0a 00 00       	call   401ce8 <_signal>
  401237:	83 c8 ff             	or     $0xffffffff,%eax
  40123a:	e9 17 ff ff ff       	jmp    401156 <__gnu_exception_handler@4+0x46>
  40123f:	90                   	nop
  401240:	c7 44 24 04 01 00 00 	movl   $0x1,0x4(%esp)
  401247:	00 
  401248:	c7 04 24 08 00 00 00 	movl   $0x8,(%esp)
  40124f:	e8 94 0a 00 00       	call   401ce8 <_signal>
  401254:	85 db                	test   %ebx,%ebx
  401256:	b8 ff ff ff ff       	mov    $0xffffffff,%eax
  40125b:	0f 84 f5 fe ff ff    	je     401156 <__gnu_exception_handler@4+0x46>
  401261:	89 44 24 1c          	mov    %eax,0x1c(%esp)
  401265:	e8 36 04 00 00       	call   4016a0 <__fpreset>
  40126a:	8b 44 24 1c          	mov    0x1c(%esp),%eax
  40126e:	e9 e3 fe ff ff       	jmp    401156 <__gnu_exception_handler@4+0x46>
  401273:	8d b6 00 00 00 00    	lea    0x0(%esi),%esi
  401279:	8d bc 27 00 00 00 00 	lea    0x0(%edi,%eiz,1),%edi

00401280 <_mainCRTStartup>:
  401280:	83 ec 1c             	sub    $0x1c,%esp
  401283:	c7 04 24 01 00 00 00 	movl   $0x1,(%esp)
  40128a:	ff 15 00 61 40 00    	call   *0x406100
  401290:	e8 6b fd ff ff       	call   401000 <___mingw_CRTStartup>
  401295:	8d 74 26 00          	lea    0x0(%esi,%eiz,1),%esi
  401299:	8d bc 27 00 00 00 00 	lea    0x0(%edi,%eiz,1),%edi

004012a0 <_WinMainCRTStartup>:
  4012a0:	83 ec 1c             	sub    $0x1c,%esp
  4012a3:	c7 04 24 02 00 00 00 	movl   $0x2,(%esp)
  4012aa:	ff 15 00 61 40 00    	call   *0x406100
  4012b0:	e8 4b fd ff ff       	call   401000 <___mingw_CRTStartup>
  4012b5:	8d 74 26 00          	lea    0x0(%esi,%eiz,1),%esi
  4012b9:	8d bc 27 00 00 00 00 	lea    0x0(%edi,%eiz,1),%edi

004012c0 <_atexit>:
  4012c0:	a1 18 61 40 00       	mov    0x406118,%eax
  4012c5:	ff e0                	jmp    *%eax
  4012c7:	89 f6                	mov    %esi,%esi
  4012c9:	8d bc 27 00 00 00 00 	lea    0x0(%edi,%eiz,1),%edi

004012d0 <__onexit>:
  4012d0:	a1 0c 61 40 00       	mov    0x40610c,%eax
  4012d5:	ff e0                	jmp    *%eax
  4012d7:	90                   	nop
  4012d8:	90                   	nop
  4012d9:	90                   	nop
  4012da:	90                   	nop
  4012db:	90                   	nop
  4012dc:	90                   	nop
  4012dd:	90                   	nop
  4012de:	90                   	nop
  4012df:	90                   	nop

004012e0 <___gcc_register_frame>:
  4012e0:	8b 0d 0c 20 40 00    	mov    0x40200c,%ecx
  4012e6:	85 c9                	test   %ecx,%ecx
  4012e8:	74 38                	je     401322 <___gcc_register_frame+0x42>
  4012ea:	55                   	push   %ebp
  4012eb:	89 e5                	mov    %esp,%ebp
  4012ed:	83 ec 18             	sub    $0x18,%esp
  4012f0:	c7 04 24 00 30 40 00 	movl   $0x403000,(%esp)
  4012f7:	e8 4c 0a 00 00       	call   401d48 <_GetModuleHandleA@4>
  4012fc:	52                   	push   %edx
  4012fd:	85 c0                	test   %eax,%eax
  4012ff:	74 23                	je     401324 <___gcc_register_frame+0x44>
  401301:	c7 44 24 04 0e 30 40 	movl   $0x40300e,0x4(%esp)
  401308:	00 
  401309:	89 04 24             	mov    %eax,(%esp)
  40130c:	e8 3f 0a 00 00       	call   401d50 <_GetProcAddress@8>
  401311:	83 ec 08             	sub    $0x8,%esp
  401314:	85 c0                	test   %eax,%eax
  401316:	74 09                	je     401321 <___gcc_register_frame+0x41>
  401318:	c7 04 24 0c 20 40 00 	movl   $0x40200c,(%esp)
  40131f:	ff d0                	call   *%eax
  401321:	c9                   	leave  
  401322:	c3                   	ret    
  401323:	90                   	nop
  401324:	b8 00 00 00 00       	mov    $0x0,%eax
  401329:	eb e9                	jmp    401314 <___gcc_register_frame+0x34>
  40132b:	90                   	nop

0040132c <___gcc_deregister_frame>:
  40132c:	55                   	push   %ebp
  40132d:	89 e5                	mov    %esp,%ebp
  40132f:	5d                   	pop    %ebp
  401330:	c3                   	ret    
  401331:	90                   	nop
  401332:	90                   	nop
  401333:	90                   	nop

00401334 <_main>:
  401334:	55                   	push   %ebp
  401335:	89 e5                	mov    %esp,%ebp
  401337:	83 e4 f0             	and    $0xfffffff0,%esp
  40133a:	83 ec 50             	sub    $0x50,%esp
  40133d:	e8 3e 07 00 00       	call   401a80 <___main>
  401342:	b8 00 00 00 00       	mov    $0x0,%eax
  401347:	ba 00 00 00 00       	mov    $0x0,%edx
  40134c:	89 44 24 48          	mov    %eax,0x48(%esp)
  401350:	89 54 24 4c          	mov    %edx,0x4c(%esp)
  401354:	b8 00 00 00 00       	mov    $0x0,%eax
  401359:	ba 00 00 00 00       	mov    $0x0,%edx
  40135e:	89 44 24 40          	mov    %eax,0x40(%esp)
  401362:	89 54 24 44          	mov    %edx,0x44(%esp)
  401366:	8d 44 24 28          	lea    0x28(%esp),%eax
  40136a:	89 44 24 08          	mov    %eax,0x8(%esp)
  40136e:	8d 44 24 30          	lea    0x30(%esp),%eax
  401372:	89 44 24 04          	mov    %eax,0x4(%esp)
  401376:	c7 04 24 28 30 40 00 	movl   $0x403028,(%esp)
  40137d:	e8 6e 09 00 00       	call   401cf0 <_scanf>
  401382:	dd 44 24 30          	fldl   0x30(%esp)
  401386:	dd 05 38 30 40 00    	fldl   0x403038
  40138c:	de c9                	fmulp  %st,%st(1)
  40138e:	dd 5c 24 30          	fstpl  0x30(%esp)
  401392:	dd 44 24 28          	fldl   0x28(%esp)
  401396:	dd 05 38 30 40 00    	fldl   0x403038
  40139c:	de c9                	fmulp  %st,%st(1)
  40139e:	dd 5c 24 28          	fstpl  0x28(%esp)
  4013a2:	dd 44 24 28          	fldl   0x28(%esp)
  4013a6:	dd 44 24 30          	fldl   0x30(%esp)
  4013aa:	da e9                	fucompp 
  4013ac:	df e0                	fnstsw %ax
  4013ae:	f6 c4 45             	test   $0x45,%ah
  4013b1:	75 42                	jne    4013f5 <_main+0xc1>
  4013b3:	8b 44 24 30          	mov    0x30(%esp),%eax
  4013b7:	8b 54 24 34          	mov    0x34(%esp),%edx
  4013bb:	89 44 24 40          	mov    %eax,0x40(%esp)
  4013bf:	89 54 24 44          	mov    %edx,0x44(%esp)
  4013c3:	8b 44 24 28          	mov    0x28(%esp),%eax
  4013c7:	8b 54 24 2c          	mov    0x2c(%esp),%edx
  4013cb:	89 44 24 30          	mov    %eax,0x30(%esp)
  4013cf:	89 54 24 34          	mov    %edx,0x34(%esp)
  4013d3:	8b 44 24 40          	mov    0x40(%esp),%eax
  4013d7:	8b 54 24 44          	mov    0x44(%esp),%edx
  4013db:	89 44 24 28          	mov    %eax,0x28(%esp)
  4013df:	89 54 24 2c          	mov    %edx,0x2c(%esp)
  4013e3:	b8 00 00 00 00       	mov    $0x0,%eax
  4013e8:	ba 00 00 f0 bf       	mov    $0xbff00000,%edx
  4013ed:	89 44 24 40          	mov    %eax,0x40(%esp)
  4013f1:	89 54 24 44          	mov    %edx,0x44(%esp)
  4013f5:	8b 44 24 30          	mov    0x30(%esp),%eax
  4013f9:	8b 54 24 34          	mov    0x34(%esp),%edx
  4013fd:	89 44 24 38          	mov    %eax,0x38(%esp)
  401401:	89 54 24 3c          	mov    %edx,0x3c(%esp)
  401405:	eb 64                	jmp    40146b <_main+0x137>
  401407:	dd 44 24 38          	fldl   0x38(%esp)
  40140b:	dc 4c 24 38          	fmull  0x38(%esp)
  40140f:	dd 1c 24             	fstpl  (%esp)
  401412:	e8 e1 08 00 00       	call   401cf8 <_cos>
  401417:	dd 5c 24 18          	fstpl  0x18(%esp)
  40141b:	dd 44 24 38          	fldl   0x38(%esp)
  40141f:	dd 05 40 30 40 00    	fldl   0x403040
  401425:	de c1                	faddp  %st,%st(1)
  401427:	dd 44 24 38          	fldl   0x38(%esp)
  40142b:	dd 05 40 30 40 00    	fldl   0x403040
  401431:	de c1                	faddp  %st,%st(1)
  401433:	de c9                	fmulp  %st,%st(1)
  401435:	dd 1c 24             	fstpl  (%esp)
  401438:	e8 bb 08 00 00       	call   401cf8 <_cos>
  40143d:	dc 44 24 18          	faddl  0x18(%esp)
  401441:	dd 05 40 30 40 00    	fldl   0x403040
  401447:	de c9                	fmulp  %st,%st(1)
  401449:	dd 05 48 30 40 00    	fldl   0x403048
  40144f:	de f9                	fdivrp %st,%st(1)
  401451:	dd 44 24 48          	fldl   0x48(%esp)
  401455:	de c1                	faddp  %st,%st(1)
  401457:	dd 5c 24 48          	fstpl  0x48(%esp)
  40145b:	dd 44 24 38          	fldl   0x38(%esp)
  40145f:	dd 05 40 30 40 00    	fldl   0x403040
  401465:	de c1                	faddp  %st,%st(1)
  401467:	dd 5c 24 38          	fstpl  0x38(%esp)
  40146b:	dd 44 24 28          	fldl   0x28(%esp)
  40146f:	dd 44 24 38          	fldl   0x38(%esp)
  401473:	d9 c9                	fxch   %st(1)
  401475:	da e9                	fucompp 
  401477:	df e0                	fnstsw %ax
  401479:	f6 c4 45             	test   $0x45,%ah
  40147c:	74 89                	je     401407 <_main+0xd3>
  40147e:	dd 44 24 40          	fldl   0x40(%esp)
  401482:	d9 e8                	fld1   
  401484:	d9 e0                	fchs   
  401486:	d9 c9                	fxch   %st(1)
  401488:	da e9                	fucompp 
  40148a:	df e0                	fnstsw %ax
  40148c:	80 e4 45             	and    $0x45,%ah
  40148f:	80 f4 40             	xor    $0x40,%ah
  401492:	75 0a                	jne    40149e <_main+0x16a>
  401494:	dd 44 24 48          	fldl   0x48(%esp)
  401498:	d9 e0                	fchs   
  40149a:	dd 5c 24 48          	fstpl  0x48(%esp)
  40149e:	8b 44 24 48          	mov    0x48(%esp),%eax
  4014a2:	8b 54 24 4c          	mov    0x4c(%esp),%edx
  4014a6:	89 44 24 04          	mov    %eax,0x4(%esp)
  4014aa:	89 54 24 08          	mov    %edx,0x8(%esp)
  4014ae:	c7 04 24 30 30 40 00 	movl   $0x403030,(%esp)
  4014b5:	e8 46 08 00 00       	call   401d00 <_printf>
  4014ba:	b8 00 00 00 00       	mov    $0x0,%eax
  4014bf:	c9                   	leave  
  4014c0:	c3                   	ret    
  4014c1:	90                   	nop
  4014c2:	90                   	nop
  4014c3:	90                   	nop
	...

004014d0 <___dyn_tls_dtor@12>:
  4014d0:	83 ec 1c             	sub    $0x1c,%esp
  4014d3:	8b 44 24 24          	mov    0x24(%esp),%eax
  4014d7:	85 c0                	test   %eax,%eax
  4014d9:	74 15                	je     4014f0 <___dyn_tls_dtor@12+0x20>
  4014db:	83 f8 03             	cmp    $0x3,%eax
  4014de:	74 10                	je     4014f0 <___dyn_tls_dtor@12+0x20>
  4014e0:	b8 01 00 00 00       	mov    $0x1,%eax
  4014e5:	83 c4 1c             	add    $0x1c,%esp
  4014e8:	c2 0c 00             	ret    $0xc
  4014eb:	90                   	nop
  4014ec:	8d 74 26 00          	lea    0x0(%esi,%eiz,1),%esi
  4014f0:	8b 54 24 28          	mov    0x28(%esp),%edx
  4014f4:	89 44 24 04          	mov    %eax,0x4(%esp)
  4014f8:	8b 44 24 20          	mov    0x20(%esp),%eax
  4014fc:	89 54 24 08          	mov    %edx,0x8(%esp)
  401500:	89 04 24             	mov    %eax,(%esp)
  401503:	e8 18 07 00 00       	call   401c20 <___mingw_TLScallback>
  401508:	b8 01 00 00 00       	mov    $0x1,%eax
  40150d:	83 c4 1c             	add    $0x1c,%esp
  401510:	c2 0c 00             	ret    $0xc
  401513:	8d b6 00 00 00 00    	lea    0x0(%esi),%esi
  401519:	8d bc 27 00 00 00 00 	lea    0x0(%edi,%eiz,1),%edi

00401520 <___dyn_tls_init@12>:
  401520:	56                   	push   %esi
  401521:	53                   	push   %ebx
  401522:	83 ec 14             	sub    $0x14,%esp
  401525:	83 3d 28 50 40 00 02 	cmpl   $0x2,0x405028
  40152c:	8b 44 24 24          	mov    0x24(%esp),%eax
  401530:	74 0a                	je     40153c <___dyn_tls_init@12+0x1c>
  401532:	c7 05 28 50 40 00 02 	movl   $0x2,0x405028
  401539:	00 00 00 
  40153c:	83 f8 02             	cmp    $0x2,%eax
  40153f:	74 12                	je     401553 <___dyn_tls_init@12+0x33>
  401541:	83 f8 01             	cmp    $0x1,%eax
  401544:	74 42                	je     401588 <___dyn_tls_init@12+0x68>
  401546:	83 c4 14             	add    $0x14,%esp
  401549:	b8 01 00 00 00       	mov    $0x1,%eax
  40154e:	5b                   	pop    %ebx
  40154f:	5e                   	pop    %esi
  401550:	c2 0c 00             	ret    $0xc
  401553:	be 14 70 40 00       	mov    $0x407014,%esi
  401558:	81 ee 14 70 40 00    	sub    $0x407014,%esi
  40155e:	c1 fe 02             	sar    $0x2,%esi
  401561:	85 f6                	test   %esi,%esi
  401563:	7e e1                	jle    401546 <___dyn_tls_init@12+0x26>
  401565:	31 db                	xor    %ebx,%ebx
  401567:	8b 04 9d 14 70 40 00 	mov    0x407014(,%ebx,4),%eax
  40156e:	85 c0                	test   %eax,%eax
  401570:	74 02                	je     401574 <___dyn_tls_init@12+0x54>
  401572:	ff d0                	call   *%eax
  401574:	83 c3 01             	add    $0x1,%ebx
  401577:	39 f3                	cmp    %esi,%ebx
  401579:	75 ec                	jne    401567 <___dyn_tls_init@12+0x47>
  40157b:	83 c4 14             	add    $0x14,%esp
  40157e:	b8 01 00 00 00       	mov    $0x1,%eax
  401583:	5b                   	pop    %ebx
  401584:	5e                   	pop    %esi
  401585:	c2 0c 00             	ret    $0xc
  401588:	8b 44 24 28          	mov    0x28(%esp),%eax
  40158c:	c7 44 24 04 01 00 00 	movl   $0x1,0x4(%esp)
  401593:	00 
  401594:	89 44 24 08          	mov    %eax,0x8(%esp)
  401598:	8b 44 24 20          	mov    0x20(%esp),%eax
  40159c:	89 04 24             	mov    %eax,(%esp)
  40159f:	e8 7c 06 00 00       	call   401c20 <___mingw_TLScallback>
  4015a4:	eb a0                	jmp    401546 <___dyn_tls_init@12+0x26>
  4015a6:	8d 76 00             	lea    0x0(%esi),%esi
  4015a9:	8d bc 27 00 00 00 00 	lea    0x0(%edi,%eiz,1),%edi

004015b0 <___tlregdtor>:
  4015b0:	31 c0                	xor    %eax,%eax
  4015b2:	c3                   	ret    
  4015b3:	90                   	nop
  4015b4:	90                   	nop
  4015b5:	90                   	nop
  4015b6:	90                   	nop
  4015b7:	90                   	nop
  4015b8:	90                   	nop
  4015b9:	90                   	nop
  4015ba:	90                   	nop
  4015bb:	90                   	nop
  4015bc:	90                   	nop
  4015bd:	90                   	nop
  4015be:	90                   	nop
  4015bf:	90                   	nop

004015c0 <___cpu_features_init>:
  4015c0:	9c                   	pushf  
  4015c1:	9c                   	pushf  
  4015c2:	58                   	pop    %eax
  4015c3:	89 c2                	mov    %eax,%edx
  4015c5:	35 00 00 20 00       	xor    $0x200000,%eax
  4015ca:	50                   	push   %eax
  4015cb:	9d                   	popf   
  4015cc:	9c                   	pushf  
  4015cd:	58                   	pop    %eax
  4015ce:	9d                   	popf   
  4015cf:	31 d0                	xor    %edx,%eax
  4015d1:	a9 00 00 20 00       	test   $0x200000,%eax
  4015d6:	0f 84 a5 00 00 00    	je     401681 <___cpu_features_init+0xc1>
  4015dc:	53                   	push   %ebx
  4015dd:	31 c0                	xor    %eax,%eax
  4015df:	0f a2                	cpuid  
  4015e1:	85 c0                	test   %eax,%eax
  4015e3:	0f 84 97 00 00 00    	je     401680 <___cpu_features_init+0xc0>
  4015e9:	b8 01 00 00 00       	mov    $0x1,%eax
  4015ee:	0f a2                	cpuid  
  4015f0:	f6 c6 01             	test   $0x1,%dh
  4015f3:	74 07                	je     4015fc <___cpu_features_init+0x3c>
  4015f5:	83 0d 1c 50 40 00 01 	orl    $0x1,0x40501c
  4015fc:	f6 c6 80             	test   $0x80,%dh
  4015ff:	74 07                	je     401608 <___cpu_features_init+0x48>
  401601:	83 0d 1c 50 40 00 02 	orl    $0x2,0x40501c
  401608:	f7 c2 00 00 80 00    	test   $0x800000,%edx
  40160e:	74 07                	je     401617 <___cpu_features_init+0x57>
  401610:	83 0d 1c 50 40 00 04 	orl    $0x4,0x40501c
  401617:	f7 c2 00 00 00 01    	test   $0x1000000,%edx
  40161d:	74 07                	je     401626 <___cpu_features_init+0x66>
  40161f:	83 0d 1c 50 40 00 08 	orl    $0x8,0x40501c
  401626:	f7 c2 00 00 00 02    	test   $0x2000000,%edx
  40162c:	74 07                	je     401635 <___cpu_features_init+0x75>
  40162e:	83 0d 1c 50 40 00 10 	orl    $0x10,0x40501c
  401635:	81 e2 00 00 00 04    	and    $0x4000000,%edx
  40163b:	74 07                	je     401644 <___cpu_features_init+0x84>
  40163d:	83 0d 1c 50 40 00 20 	orl    $0x20,0x40501c
  401644:	f6 c1 01             	test   $0x1,%cl
  401647:	74 07                	je     401650 <___cpu_features_init+0x90>
  401649:	83 0d 1c 50 40 00 40 	orl    $0x40,0x40501c
  401650:	80 e5 20             	and    $0x20,%ch
  401653:	75 2e                	jne    401683 <___cpu_features_init+0xc3>
  401655:	b8 00 00 00 80       	mov    $0x80000000,%eax
  40165a:	0f a2                	cpuid  
  40165c:	3d 00 00 00 80       	cmp    $0x80000000,%eax
  401661:	76 1d                	jbe    401680 <___cpu_features_init+0xc0>
  401663:	b8 01 00 00 80       	mov    $0x80000001,%eax
  401668:	0f a2                	cpuid  
  40166a:	85 d2                	test   %edx,%edx
  40166c:	78 22                	js     401690 <___cpu_features_init+0xd0>
  40166e:	81 e2 00 00 00 40    	and    $0x40000000,%edx
  401674:	74 0a                	je     401680 <___cpu_features_init+0xc0>
  401676:	81 0d 1c 50 40 00 00 	orl    $0x200,0x40501c
  40167d:	02 00 00 
  401680:	5b                   	pop    %ebx
  401681:	f3 c3                	repz ret 
  401683:	81 0d 1c 50 40 00 80 	orl    $0x80,0x40501c
  40168a:	00 00 00 
  40168d:	eb c6                	jmp    401655 <___cpu_features_init+0x95>
  40168f:	90                   	nop
  401690:	81 0d 1c 50 40 00 00 	orl    $0x100,0x40501c
  401697:	01 00 00 
  40169a:	eb d2                	jmp    40166e <___cpu_features_init+0xae>
  40169c:	90                   	nop
  40169d:	90                   	nop
  40169e:	90                   	nop
  40169f:	90                   	nop

004016a0 <__fpreset>:
  4016a0:	db e3                	fninit 
  4016a2:	c3                   	ret    
  4016a3:	90                   	nop
  4016a4:	90                   	nop
  4016a5:	90                   	nop
  4016a6:	90                   	nop
  4016a7:	90                   	nop
  4016a8:	90                   	nop
  4016a9:	90                   	nop
  4016aa:	90                   	nop
  4016ab:	90                   	nop
  4016ac:	90                   	nop
  4016ad:	90                   	nop
  4016ae:	90                   	nop
  4016af:	90                   	nop

004016b0 <___report_error>:
  4016b0:	53                   	push   %ebx
  4016b1:	83 ec 28             	sub    $0x28,%esp
  4016b4:	8b 1d 08 61 40 00    	mov    0x406108,%ebx
  4016ba:	8d 44 24 34          	lea    0x34(%esp),%eax
  4016be:	c7 44 24 08 17 00 00 	movl   $0x17,0x8(%esp)
  4016c5:	00 
  4016c6:	c7 44 24 04 01 00 00 	movl   $0x1,0x4(%esp)
  4016cd:	00 
  4016ce:	83 c3 40             	add    $0x40,%ebx
  4016d1:	89 5c 24 0c          	mov    %ebx,0xc(%esp)
  4016d5:	c7 04 24 54 30 40 00 	movl   $0x403054,(%esp)
  4016dc:	89 44 24 1c          	mov    %eax,0x1c(%esp)
  4016e0:	e8 23 06 00 00       	call   401d08 <_fwrite>
  4016e5:	8b 44 24 1c          	mov    0x1c(%esp),%eax
  4016e9:	89 1c 24             	mov    %ebx,(%esp)
  4016ec:	89 44 24 08          	mov    %eax,0x8(%esp)
  4016f0:	8b 44 24 30          	mov    0x30(%esp),%eax
  4016f4:	89 44 24 04          	mov    %eax,0x4(%esp)
  4016f8:	e8 13 06 00 00       	call   401d10 <_vfprintf>
  4016fd:	e8 16 06 00 00       	call   401d18 <_abort>
  401702:	8d b4 26 00 00 00 00 	lea    0x0(%esi,%eiz,1),%esi
  401709:	8d bc 27 00 00 00 00 	lea    0x0(%edi,%eiz,1),%edi

00401710 <___write_memory.part.0>:
  401710:	83 ec 5c             	sub    $0x5c,%esp
  401713:	89 5c 24 4c          	mov    %ebx,0x4c(%esp)
  401717:	89 c3                	mov    %eax,%ebx
  401719:	8d 44 24 24          	lea    0x24(%esp),%eax
  40171d:	c7 44 24 08 1c 00 00 	movl   $0x1c,0x8(%esp)
  401724:	00 
  401725:	89 44 24 04          	mov    %eax,0x4(%esp)
  401729:	89 1c 24             	mov    %ebx,(%esp)
  40172c:	89 74 24 50          	mov    %esi,0x50(%esp)
  401730:	89 d6                	mov    %edx,%esi
  401732:	89 7c 24 54          	mov    %edi,0x54(%esp)
  401736:	89 cf                	mov    %ecx,%edi
  401738:	89 6c 24 58          	mov    %ebp,0x58(%esp)
  40173c:	e8 17 06 00 00       	call   401d58 <_VirtualQuery@12>
  401741:	83 ec 0c             	sub    $0xc,%esp
  401744:	85 c0                	test   %eax,%eax
  401746:	0f 84 ba 00 00 00    	je     401806 <___write_memory.part.0+0xf6>
  40174c:	8b 44 24 38          	mov    0x38(%esp),%eax
  401750:	83 f8 04             	cmp    $0x4,%eax
  401753:	75 2b                	jne    401780 <___write_memory.part.0+0x70>
  401755:	89 7c 24 08          	mov    %edi,0x8(%esp)
  401759:	89 74 24 04          	mov    %esi,0x4(%esp)
  40175d:	89 1c 24             	mov    %ebx,(%esp)
  401760:	e8 bb 05 00 00       	call   401d20 <_memcpy>
  401765:	8b 5c 24 4c          	mov    0x4c(%esp),%ebx
  401769:	8b 74 24 50          	mov    0x50(%esp),%esi
  40176d:	8b 7c 24 54          	mov    0x54(%esp),%edi
  401771:	8b 6c 24 58          	mov    0x58(%esp),%ebp
  401775:	83 c4 5c             	add    $0x5c,%esp
  401778:	c3                   	ret    
  401779:	8d b4 26 00 00 00 00 	lea    0x0(%esi,%eiz,1),%esi
  401780:	83 f8 40             	cmp    $0x40,%eax
  401783:	74 d0                	je     401755 <___write_memory.part.0+0x45>
  401785:	8b 44 24 30          	mov    0x30(%esp),%eax
  401789:	8d 6c 24 20          	lea    0x20(%esp),%ebp
  40178d:	89 6c 24 0c          	mov    %ebp,0xc(%esp)
  401791:	c7 44 24 08 40 00 00 	movl   $0x40,0x8(%esp)
  401798:	00 
  401799:	89 44 24 04          	mov    %eax,0x4(%esp)
  40179d:	8b 44 24 24          	mov    0x24(%esp),%eax
  4017a1:	89 04 24             	mov    %eax,(%esp)
  4017a4:	e8 b7 05 00 00       	call   401d60 <_VirtualProtect@16>
  4017a9:	83 ec 10             	sub    $0x10,%esp
  4017ac:	8b 44 24 38          	mov    0x38(%esp),%eax
  4017b0:	89 7c 24 08          	mov    %edi,0x8(%esp)
  4017b4:	89 74 24 04          	mov    %esi,0x4(%esp)
  4017b8:	89 1c 24             	mov    %ebx,(%esp)
  4017bb:	83 f8 40             	cmp    $0x40,%eax
  4017be:	0f 95 44 24 1e       	setne  0x1e(%esp)
  4017c3:	83 f8 04             	cmp    $0x4,%eax
  4017c6:	0f 95 44 24 1f       	setne  0x1f(%esp)
  4017cb:	e8 50 05 00 00       	call   401d20 <_memcpy>
  4017d0:	80 7c 24 1f 00       	cmpb   $0x0,0x1f(%esp)
  4017d5:	74 8e                	je     401765 <___write_memory.part.0+0x55>
  4017d7:	80 7c 24 1e 00       	cmpb   $0x0,0x1e(%esp)
  4017dc:	74 87                	je     401765 <___write_memory.part.0+0x55>
  4017de:	8b 44 24 20          	mov    0x20(%esp),%eax
  4017e2:	89 6c 24 0c          	mov    %ebp,0xc(%esp)
  4017e6:	89 44 24 08          	mov    %eax,0x8(%esp)
  4017ea:	8b 44 24 30          	mov    0x30(%esp),%eax
  4017ee:	89 44 24 04          	mov    %eax,0x4(%esp)
  4017f2:	8b 44 24 24          	mov    0x24(%esp),%eax
  4017f6:	89 04 24             	mov    %eax,(%esp)
  4017f9:	e8 62 05 00 00       	call   401d60 <_VirtualProtect@16>
  4017fe:	83 ec 10             	sub    $0x10,%esp
  401801:	e9 5f ff ff ff       	jmp    401765 <___write_memory.part.0+0x55>
  401806:	89 5c 24 08          	mov    %ebx,0x8(%esp)
  40180a:	c7 44 24 04 1c 00 00 	movl   $0x1c,0x4(%esp)
  401811:	00 
  401812:	c7 04 24 6c 30 40 00 	movl   $0x40306c,(%esp)
  401819:	e8 92 fe ff ff       	call   4016b0 <___report_error>
  40181e:	66 90                	xchg   %ax,%ax

00401820 <__pei386_runtime_relocator>:
  401820:	a1 20 50 40 00       	mov    0x405020,%eax
  401825:	85 c0                	test   %eax,%eax
  401827:	74 07                	je     401830 <__pei386_runtime_relocator+0x10>
  401829:	c3                   	ret    
  40182a:	8d b6 00 00 00 00    	lea    0x0(%esi),%esi
  401830:	b8 00 31 40 00       	mov    $0x403100,%eax
  401835:	2d 00 31 40 00       	sub    $0x403100,%eax
  40183a:	83 f8 07             	cmp    $0x7,%eax
  40183d:	c7 05 20 50 40 00 01 	movl   $0x1,0x405020
  401844:	00 00 00 
  401847:	7e e0                	jle    401829 <__pei386_runtime_relocator+0x9>
  401849:	83 ec 2c             	sub    $0x2c,%esp
  40184c:	83 f8 0b             	cmp    $0xb,%eax
  40184f:	89 5c 24 20          	mov    %ebx,0x20(%esp)
  401853:	89 74 24 24          	mov    %esi,0x24(%esp)
  401857:	89 7c 24 28          	mov    %edi,0x28(%esp)
  40185b:	0f 8e df 00 00 00    	jle    401940 <__pei386_runtime_relocator+0x120>
  401861:	8b 35 00 31 40 00    	mov    0x403100,%esi
  401867:	85 f6                	test   %esi,%esi
  401869:	0f 85 85 00 00 00    	jne    4018f4 <__pei386_runtime_relocator+0xd4>
  40186f:	8b 1d 04 31 40 00    	mov    0x403104,%ebx
  401875:	85 db                	test   %ebx,%ebx
  401877:	75 7b                	jne    4018f4 <__pei386_runtime_relocator+0xd4>
  401879:	8b 0d 08 31 40 00    	mov    0x403108,%ecx
  40187f:	bb 0c 31 40 00       	mov    $0x40310c,%ebx
  401884:	85 c9                	test   %ecx,%ecx
  401886:	0f 84 b9 00 00 00    	je     401945 <__pei386_runtime_relocator+0x125>
  40188c:	bb 00 31 40 00       	mov    $0x403100,%ebx
  401891:	8b 43 08             	mov    0x8(%ebx),%eax
  401894:	83 f8 01             	cmp    $0x1,%eax
  401897:	0f 85 47 01 00 00    	jne    4019e4 <__pei386_runtime_relocator+0x1c4>
  40189d:	83 c3 0c             	add    $0xc,%ebx
  4018a0:	81 fb 00 31 40 00    	cmp    $0x403100,%ebx
  4018a6:	0f 83 83 00 00 00    	jae    40192f <__pei386_runtime_relocator+0x10f>
  4018ac:	0f b6 53 08          	movzbl 0x8(%ebx),%edx
  4018b0:	8b 73 04             	mov    0x4(%ebx),%esi
  4018b3:	8b 0b                	mov    (%ebx),%ecx
  4018b5:	83 fa 10             	cmp    $0x10,%edx
  4018b8:	8d 86 00 00 40 00    	lea    0x400000(%esi),%eax
  4018be:	8b b9 00 00 40 00    	mov    0x400000(%ecx),%edi
  4018c4:	0f 84 8e 00 00 00    	je     401958 <__pei386_runtime_relocator+0x138>
  4018ca:	83 fa 20             	cmp    $0x20,%edx
  4018cd:	0f 84 f0 00 00 00    	je     4019c3 <__pei386_runtime_relocator+0x1a3>
  4018d3:	83 fa 08             	cmp    $0x8,%edx
  4018d6:	0f 84 b4 00 00 00    	je     401990 <__pei386_runtime_relocator+0x170>
  4018dc:	89 54 24 04          	mov    %edx,0x4(%esp)
  4018e0:	c7 04 24 d4 30 40 00 	movl   $0x4030d4,(%esp)
  4018e7:	c7 44 24 18 00 00 00 	movl   $0x0,0x18(%esp)
  4018ee:	00 
  4018ef:	e8 bc fd ff ff       	call   4016b0 <___report_error>
  4018f4:	bb 00 31 40 00       	mov    $0x403100,%ebx
  4018f9:	81 fb 00 31 40 00    	cmp    $0x403100,%ebx
  4018ff:	73 2e                	jae    40192f <__pei386_runtime_relocator+0x10f>
  401901:	8b 53 04             	mov    0x4(%ebx),%edx
  401904:	b9 04 00 00 00       	mov    $0x4,%ecx
  401909:	8d 82 00 00 40 00    	lea    0x400000(%edx),%eax
  40190f:	8b 92 00 00 40 00    	mov    0x400000(%edx),%edx
  401915:	03 13                	add    (%ebx),%edx
  401917:	83 c3 08             	add    $0x8,%ebx
  40191a:	89 54 24 1c          	mov    %edx,0x1c(%esp)
  40191e:	8d 54 24 1c          	lea    0x1c(%esp),%edx
  401922:	e8 e9 fd ff ff       	call   401710 <___write_memory.part.0>
  401927:	81 fb 00 31 40 00    	cmp    $0x403100,%ebx
  40192d:	72 d2                	jb     401901 <__pei386_runtime_relocator+0xe1>
  40192f:	8b 5c 24 20          	mov    0x20(%esp),%ebx
  401933:	8b 74 24 24          	mov    0x24(%esp),%esi
  401937:	8b 7c 24 28          	mov    0x28(%esp),%edi
  40193b:	83 c4 2c             	add    $0x2c,%esp
  40193e:	c3                   	ret    
  40193f:	90                   	nop
  401940:	bb 00 31 40 00       	mov    $0x403100,%ebx
  401945:	8b 13                	mov    (%ebx),%edx
  401947:	85 d2                	test   %edx,%edx
  401949:	75 ae                	jne    4018f9 <__pei386_runtime_relocator+0xd9>
  40194b:	8b 43 04             	mov    0x4(%ebx),%eax
  40194e:	85 c0                	test   %eax,%eax
  401950:	0f 84 3b ff ff ff    	je     401891 <__pei386_runtime_relocator+0x71>
  401956:	eb a1                	jmp    4018f9 <__pei386_runtime_relocator+0xd9>
  401958:	0f b7 b6 00 00 40 00 	movzwl 0x400000(%esi),%esi
  40195f:	66 85 f6             	test   %si,%si
  401962:	0f b7 d6             	movzwl %si,%edx
  401965:	79 06                	jns    40196d <__pei386_runtime_relocator+0x14d>
  401967:	81 ca 00 00 ff ff    	or     $0xffff0000,%edx
  40196d:	29 ca                	sub    %ecx,%edx
  40196f:	b9 02 00 00 00       	mov    $0x2,%ecx
  401974:	81 ea 00 00 40 00    	sub    $0x400000,%edx
  40197a:	01 fa                	add    %edi,%edx
  40197c:	89 54 24 18          	mov    %edx,0x18(%esp)
  401980:	8d 54 24 18          	lea    0x18(%esp),%edx
  401984:	e8 87 fd ff ff       	call   401710 <___write_memory.part.0>
  401989:	e9 0f ff ff ff       	jmp    40189d <__pei386_runtime_relocator+0x7d>
  40198e:	66 90                	xchg   %ax,%ax
  401990:	0f b6 10             	movzbl (%eax),%edx
  401993:	84 d2                	test   %dl,%dl
  401995:	0f b6 f2             	movzbl %dl,%esi
  401998:	79 06                	jns    4019a0 <__pei386_runtime_relocator+0x180>
  40199a:	81 ce 00 ff ff ff    	or     $0xffffff00,%esi
  4019a0:	89 f2                	mov    %esi,%edx
  4019a2:	81 ea 00 00 40 00    	sub    $0x400000,%edx
  4019a8:	29 ca                	sub    %ecx,%edx
  4019aa:	b9 01 00 00 00       	mov    $0x1,%ecx
  4019af:	01 fa                	add    %edi,%edx
  4019b1:	89 54 24 18          	mov    %edx,0x18(%esp)
  4019b5:	8d 54 24 18          	lea    0x18(%esp),%edx
  4019b9:	e8 52 fd ff ff       	call   401710 <___write_memory.part.0>
  4019be:	e9 da fe ff ff       	jmp    40189d <__pei386_runtime_relocator+0x7d>
  4019c3:	81 c1 00 00 40 00    	add    $0x400000,%ecx
  4019c9:	29 cf                	sub    %ecx,%edi
  4019cb:	b9 04 00 00 00       	mov    $0x4,%ecx
  4019d0:	03 38                	add    (%eax),%edi
  4019d2:	8d 54 24 18          	lea    0x18(%esp),%edx
  4019d6:	89 7c 24 18          	mov    %edi,0x18(%esp)
  4019da:	e8 31 fd ff ff       	call   401710 <___write_memory.part.0>
  4019df:	e9 b9 fe ff ff       	jmp    40189d <__pei386_runtime_relocator+0x7d>
  4019e4:	89 44 24 04          	mov    %eax,0x4(%esp)
  4019e8:	c7 04 24 a0 30 40 00 	movl   $0x4030a0,(%esp)
  4019ef:	e8 bc fc ff ff       	call   4016b0 <___report_error>
  4019f4:	90                   	nop
  4019f5:	90                   	nop
  4019f6:	90                   	nop
  4019f7:	90                   	nop
  4019f8:	90                   	nop
  4019f9:	90                   	nop
  4019fa:	90                   	nop
  4019fb:	90                   	nop
  4019fc:	90                   	nop
  4019fd:	90                   	nop
  4019fe:	90                   	nop
  4019ff:	90                   	nop

00401a00 <___do_global_dtors>:
  401a00:	a1 08 20 40 00       	mov    0x402008,%eax
  401a05:	8b 00                	mov    (%eax),%eax
  401a07:	85 c0                	test   %eax,%eax
  401a09:	74 1f                	je     401a2a <___do_global_dtors+0x2a>
  401a0b:	83 ec 0c             	sub    $0xc,%esp
  401a0e:	66 90                	xchg   %ax,%ax
  401a10:	ff d0                	call   *%eax
  401a12:	a1 08 20 40 00       	mov    0x402008,%eax
  401a17:	8d 50 04             	lea    0x4(%eax),%edx
  401a1a:	8b 40 04             	mov    0x4(%eax),%eax
  401a1d:	89 15 08 20 40 00    	mov    %edx,0x402008
  401a23:	85 c0                	test   %eax,%eax
  401a25:	75 e9                	jne    401a10 <___do_global_dtors+0x10>
  401a27:	83 c4 0c             	add    $0xc,%esp
  401a2a:	f3 c3                	repz ret 
  401a2c:	8d 74 26 00          	lea    0x0(%esi,%eiz,1),%esi

00401a30 <___do_global_ctors>:
  401a30:	53                   	push   %ebx
  401a31:	83 ec 18             	sub    $0x18,%esp
  401a34:	8b 1d b4 1d 40 00    	mov    0x401db4,%ebx
  401a3a:	83 fb ff             	cmp    $0xffffffff,%ebx
  401a3d:	74 24                	je     401a63 <___do_global_ctors+0x33>
  401a3f:	85 db                	test   %ebx,%ebx
  401a41:	74 0f                	je     401a52 <___do_global_ctors+0x22>
  401a43:	ff 14 9d b4 1d 40 00 	call   *0x401db4(,%ebx,4)
  401a4a:	83 eb 01             	sub    $0x1,%ebx
  401a4d:	8d 76 00             	lea    0x0(%esi),%esi
  401a50:	75 f1                	jne    401a43 <___do_global_ctors+0x13>
  401a52:	c7 04 24 00 1a 40 00 	movl   $0x401a00,(%esp)
  401a59:	e8 62 f8 ff ff       	call   4012c0 <_atexit>
  401a5e:	83 c4 18             	add    $0x18,%esp
  401a61:	5b                   	pop    %ebx
  401a62:	c3                   	ret    
  401a63:	31 db                	xor    %ebx,%ebx
  401a65:	eb 02                	jmp    401a69 <___do_global_ctors+0x39>
  401a67:	89 c3                	mov    %eax,%ebx
  401a69:	8d 43 01             	lea    0x1(%ebx),%eax
  401a6c:	8b 14 85 b4 1d 40 00 	mov    0x401db4(,%eax,4),%edx
  401a73:	85 d2                	test   %edx,%edx
  401a75:	75 f0                	jne    401a67 <___do_global_ctors+0x37>
  401a77:	eb c6                	jmp    401a3f <___do_global_ctors+0xf>
  401a79:	8d b4 26 00 00 00 00 	lea    0x0(%esi,%eiz,1),%esi

00401a80 <___main>:
  401a80:	8b 0d 24 50 40 00    	mov    0x405024,%ecx
  401a86:	85 c9                	test   %ecx,%ecx
  401a88:	74 06                	je     401a90 <___main+0x10>
  401a8a:	f3 c3                	repz ret 
  401a8c:	8d 74 26 00          	lea    0x0(%esi,%eiz,1),%esi
  401a90:	c7 05 24 50 40 00 01 	movl   $0x1,0x405024
  401a97:	00 00 00 
  401a9a:	eb 94                	jmp    401a30 <___do_global_ctors>
  401a9c:	90                   	nop
  401a9d:	90                   	nop
  401a9e:	90                   	nop
  401a9f:	90                   	nop

00401aa0 <___mingwthr_run_key_dtors.part.0>:
  401aa0:	56                   	push   %esi
  401aa1:	53                   	push   %ebx
  401aa2:	83 ec 14             	sub    $0x14,%esp
  401aa5:	c7 04 24 30 50 40 00 	movl   $0x405030,(%esp)
  401aac:	e8 b7 02 00 00       	call   401d68 <_EnterCriticalSection@4>
  401ab1:	8b 1d 48 50 40 00    	mov    0x405048,%ebx
  401ab7:	83 ec 04             	sub    $0x4,%esp
  401aba:	85 db                	test   %ebx,%ebx
  401abc:	74 2d                	je     401aeb <___mingwthr_run_key_dtors.part.0+0x4b>
  401abe:	66 90                	xchg   %ax,%ax
  401ac0:	8b 03                	mov    (%ebx),%eax
  401ac2:	89 04 24             	mov    %eax,(%esp)
  401ac5:	e8 a6 02 00 00       	call   401d70 <_TlsGetValue@4>
  401aca:	83 ec 04             	sub    $0x4,%esp
  401acd:	89 c6                	mov    %eax,%esi
  401acf:	e8 a4 02 00 00       	call   401d78 <_GetLastError@0>
  401ad4:	85 c0                	test   %eax,%eax
  401ad6:	75 0c                	jne    401ae4 <___mingwthr_run_key_dtors.part.0+0x44>
  401ad8:	85 f6                	test   %esi,%esi
  401ada:	74 08                	je     401ae4 <___mingwthr_run_key_dtors.part.0+0x44>
  401adc:	8b 43 04             	mov    0x4(%ebx),%eax
  401adf:	89 34 24             	mov    %esi,(%esp)
  401ae2:	ff d0                	call   *%eax
  401ae4:	8b 5b 08             	mov    0x8(%ebx),%ebx
  401ae7:	85 db                	test   %ebx,%ebx
  401ae9:	75 d5                	jne    401ac0 <___mingwthr_run_key_dtors.part.0+0x20>
  401aeb:	c7 04 24 30 50 40 00 	movl   $0x405030,(%esp)
  401af2:	e8 89 02 00 00       	call   401d80 <_LeaveCriticalSection@4>
  401af7:	83 ec 04             	sub    $0x4,%esp
  401afa:	83 c4 14             	add    $0x14,%esp
  401afd:	5b                   	pop    %ebx
  401afe:	5e                   	pop    %esi
  401aff:	c3                   	ret    

00401b00 <____w64_mingwthr_add_key_dtor>:
  401b00:	83 ec 1c             	sub    $0x1c,%esp
  401b03:	a1 2c 50 40 00       	mov    0x40502c,%eax
  401b08:	89 74 24 18          	mov    %esi,0x18(%esp)
  401b0c:	31 f6                	xor    %esi,%esi
  401b0e:	89 5c 24 14          	mov    %ebx,0x14(%esp)
  401b12:	85 c0                	test   %eax,%eax
  401b14:	75 0e                	jne    401b24 <____w64_mingwthr_add_key_dtor+0x24>
  401b16:	89 f0                	mov    %esi,%eax
  401b18:	8b 5c 24 14          	mov    0x14(%esp),%ebx
  401b1c:	8b 74 24 18          	mov    0x18(%esp),%esi
  401b20:	83 c4 1c             	add    $0x1c,%esp
  401b23:	c3                   	ret    
  401b24:	c7 44 24 04 0c 00 00 	movl   $0xc,0x4(%esp)
  401b2b:	00 
  401b2c:	c7 04 24 01 00 00 00 	movl   $0x1,(%esp)
  401b33:	e8 f0 01 00 00       	call   401d28 <_calloc>
  401b38:	85 c0                	test   %eax,%eax
  401b3a:	89 c3                	mov    %eax,%ebx
  401b3c:	74 47                	je     401b85 <____w64_mingwthr_add_key_dtor+0x85>
  401b3e:	8b 44 24 20          	mov    0x20(%esp),%eax
  401b42:	c7 04 24 30 50 40 00 	movl   $0x405030,(%esp)
  401b49:	89 03                	mov    %eax,(%ebx)
  401b4b:	8b 44 24 24          	mov    0x24(%esp),%eax
  401b4f:	89 43 04             	mov    %eax,0x4(%ebx)
  401b52:	e8 11 02 00 00       	call   401d68 <_EnterCriticalSection@4>
  401b57:	a1 48 50 40 00       	mov    0x405048,%eax
  401b5c:	89 1d 48 50 40 00    	mov    %ebx,0x405048
  401b62:	89 43 08             	mov    %eax,0x8(%ebx)
  401b65:	83 ec 04             	sub    $0x4,%esp
  401b68:	c7 04 24 30 50 40 00 	movl   $0x405030,(%esp)
  401b6f:	e8 0c 02 00 00       	call   401d80 <_LeaveCriticalSection@4>
  401b74:	89 f0                	mov    %esi,%eax
  401b76:	83 ec 04             	sub    $0x4,%esp
  401b79:	8b 5c 24 14          	mov    0x14(%esp),%ebx
  401b7d:	8b 74 24 18          	mov    0x18(%esp),%esi
  401b81:	83 c4 1c             	add    $0x1c,%esp
  401b84:	c3                   	ret    
  401b85:	be ff ff ff ff       	mov    $0xffffffff,%esi
  401b8a:	eb 8a                	jmp    401b16 <____w64_mingwthr_add_key_dtor+0x16>
  401b8c:	8d 74 26 00          	lea    0x0(%esi,%eiz,1),%esi

00401b90 <____w64_mingwthr_remove_key_dtor>:
  401b90:	53                   	push   %ebx
  401b91:	83 ec 18             	sub    $0x18,%esp
  401b94:	a1 2c 50 40 00       	mov    0x40502c,%eax
  401b99:	8b 5c 24 20          	mov    0x20(%esp),%ebx
  401b9d:	85 c0                	test   %eax,%eax
  401b9f:	75 07                	jne    401ba8 <____w64_mingwthr_remove_key_dtor+0x18>
  401ba1:	83 c4 18             	add    $0x18,%esp
  401ba4:	31 c0                	xor    %eax,%eax
  401ba6:	5b                   	pop    %ebx
  401ba7:	c3                   	ret    
  401ba8:	c7 04 24 30 50 40 00 	movl   $0x405030,(%esp)
  401baf:	e8 b4 01 00 00       	call   401d68 <_EnterCriticalSection@4>
  401bb4:	8b 15 48 50 40 00    	mov    0x405048,%edx
  401bba:	83 ec 04             	sub    $0x4,%esp
  401bbd:	85 d2                	test   %edx,%edx
  401bbf:	74 1e                	je     401bdf <____w64_mingwthr_remove_key_dtor+0x4f>
  401bc1:	8b 02                	mov    (%edx),%eax
  401bc3:	39 d8                	cmp    %ebx,%eax
  401bc5:	75 11                	jne    401bd8 <____w64_mingwthr_remove_key_dtor+0x48>
  401bc7:	eb 4b                	jmp    401c14 <____w64_mingwthr_remove_key_dtor+0x84>
  401bc9:	8d b4 26 00 00 00 00 	lea    0x0(%esi,%eiz,1),%esi
  401bd0:	8b 08                	mov    (%eax),%ecx
  401bd2:	39 d9                	cmp    %ebx,%ecx
  401bd4:	74 1f                	je     401bf5 <____w64_mingwthr_remove_key_dtor+0x65>
  401bd6:	89 c2                	mov    %eax,%edx
  401bd8:	8b 42 08             	mov    0x8(%edx),%eax
  401bdb:	85 c0                	test   %eax,%eax
  401bdd:	75 f1                	jne    401bd0 <____w64_mingwthr_remove_key_dtor+0x40>
  401bdf:	c7 04 24 30 50 40 00 	movl   $0x405030,(%esp)
  401be6:	e8 95 01 00 00       	call   401d80 <_LeaveCriticalSection@4>
  401beb:	83 ec 04             	sub    $0x4,%esp
  401bee:	83 c4 18             	add    $0x18,%esp
  401bf1:	31 c0                	xor    %eax,%eax
  401bf3:	5b                   	pop    %ebx
  401bf4:	c3                   	ret    
  401bf5:	8b 48 08             	mov    0x8(%eax),%ecx
  401bf8:	89 4a 08             	mov    %ecx,0x8(%edx)
  401bfb:	89 04 24             	mov    %eax,(%esp)
  401bfe:	e8 2d 01 00 00       	call   401d30 <_free>
  401c03:	c7 04 24 30 50 40 00 	movl   $0x405030,(%esp)
  401c0a:	e8 71 01 00 00       	call   401d80 <_LeaveCriticalSection@4>
  401c0f:	83 ec 04             	sub    $0x4,%esp
  401c12:	eb da                	jmp    401bee <____w64_mingwthr_remove_key_dtor+0x5e>
  401c14:	8b 42 08             	mov    0x8(%edx),%eax
  401c17:	a3 48 50 40 00       	mov    %eax,0x405048
  401c1c:	89 d0                	mov    %edx,%eax
  401c1e:	eb db                	jmp    401bfb <____w64_mingwthr_remove_key_dtor+0x6b>

00401c20 <___mingw_TLScallback>:
  401c20:	83 ec 1c             	sub    $0x1c,%esp
  401c23:	8b 44 24 24          	mov    0x24(%esp),%eax
  401c27:	83 f8 01             	cmp    $0x1,%eax
  401c2a:	74 44                	je     401c70 <___mingw_TLScallback+0x50>
  401c2c:	72 12                	jb     401c40 <___mingw_TLScallback+0x20>
  401c2e:	83 f8 03             	cmp    $0x3,%eax
  401c31:	74 5d                	je     401c90 <___mingw_TLScallback+0x70>
  401c33:	b8 01 00 00 00       	mov    $0x1,%eax
  401c38:	83 c4 1c             	add    $0x1c,%esp
  401c3b:	c3                   	ret    
  401c3c:	8d 74 26 00          	lea    0x0(%esi,%eiz,1),%esi
  401c40:	a1 2c 50 40 00       	mov    0x40502c,%eax
  401c45:	85 c0                	test   %eax,%eax
  401c47:	75 68                	jne    401cb1 <___mingw_TLScallback+0x91>
  401c49:	a1 2c 50 40 00       	mov    0x40502c,%eax
  401c4e:	83 f8 01             	cmp    $0x1,%eax
  401c51:	75 e0                	jne    401c33 <___mingw_TLScallback+0x13>
  401c53:	c7 04 24 30 50 40 00 	movl   $0x405030,(%esp)
  401c5a:	c7 05 2c 50 40 00 00 	movl   $0x0,0x40502c
  401c61:	00 00 00 
  401c64:	e8 1f 01 00 00       	call   401d88 <_DeleteCriticalSection@4>
  401c69:	83 ec 04             	sub    $0x4,%esp
  401c6c:	eb c5                	jmp    401c33 <___mingw_TLScallback+0x13>
  401c6e:	66 90                	xchg   %ax,%ax
  401c70:	a1 2c 50 40 00       	mov    0x40502c,%eax
  401c75:	85 c0                	test   %eax,%eax
  401c77:	74 27                	je     401ca0 <___mingw_TLScallback+0x80>
  401c79:	c7 05 2c 50 40 00 01 	movl   $0x1,0x40502c
  401c80:	00 00 00 
  401c83:	b8 01 00 00 00       	mov    $0x1,%eax
  401c88:	83 c4 1c             	add    $0x1c,%esp
  401c8b:	c3                   	ret    
  401c8c:	8d 74 26 00          	lea    0x0(%esi,%eiz,1),%esi
  401c90:	a1 2c 50 40 00       	mov    0x40502c,%eax
  401c95:	85 c0                	test   %eax,%eax
  401c97:	74 9a                	je     401c33 <___mingw_TLScallback+0x13>
  401c99:	e8 02 fe ff ff       	call   401aa0 <___mingwthr_run_key_dtors.part.0>
  401c9e:	eb 93                	jmp    401c33 <___mingw_TLScallback+0x13>
  401ca0:	c7 04 24 30 50 40 00 	movl   $0x405030,(%esp)
  401ca7:	e8 e4 00 00 00       	call   401d90 <_InitializeCriticalSection@4>
  401cac:	83 ec 04             	sub    $0x4,%esp
  401caf:	eb c8                	jmp    401c79 <___mingw_TLScallback+0x59>
  401cb1:	e8 ea fd ff ff       	call   401aa0 <___mingwthr_run_key_dtors.part.0>
  401cb6:	eb 91                	jmp    401c49 <___mingw_TLScallback+0x29>
  401cb8:	90                   	nop
  401cb9:	90                   	nop
  401cba:	90                   	nop
  401cbb:	90                   	nop
  401cbc:	90                   	nop
  401cbd:	90                   	nop
  401cbe:	90                   	nop
  401cbf:	90                   	nop

00401cc0 <___getmainargs>:
  401cc0:	ff 25 f4 60 40 00    	jmp    *0x4060f4
  401cc6:	90                   	nop
  401cc7:	90                   	nop

00401cc8 <__setmode>:
  401cc8:	ff 25 10 61 40 00    	jmp    *0x406110
  401cce:	90                   	nop
  401ccf:	90                   	nop

00401cd0 <___p__fmode>:
  401cd0:	ff 25 fc 60 40 00    	jmp    *0x4060fc
  401cd6:	90                   	nop
  401cd7:	90                   	nop

00401cd8 <___p__environ>:
  401cd8:	ff 25 f8 60 40 00    	jmp    *0x4060f8
  401cde:	90                   	nop
  401cdf:	90                   	nop

00401ce0 <__cexit>:
  401ce0:	ff 25 04 61 40 00    	jmp    *0x406104
  401ce6:	90                   	nop
  401ce7:	90                   	nop

00401ce8 <_signal>:
  401ce8:	ff 25 38 61 40 00    	jmp    *0x406138
  401cee:	90                   	nop
  401cef:	90                   	nop

00401cf0 <_scanf>:
  401cf0:	ff 25 34 61 40 00    	jmp    *0x406134
  401cf6:	90                   	nop
  401cf7:	90                   	nop

00401cf8 <_cos>:
  401cf8:	ff 25 20 61 40 00    	jmp    *0x406120
  401cfe:	90                   	nop
  401cff:	90                   	nop

00401d00 <_printf>:
  401d00:	ff 25 30 61 40 00    	jmp    *0x406130
  401d06:	90                   	nop
  401d07:	90                   	nop

00401d08 <_fwrite>:
  401d08:	ff 25 28 61 40 00    	jmp    *0x406128
  401d0e:	90                   	nop
  401d0f:	90                   	nop

00401d10 <_vfprintf>:
  401d10:	ff 25 3c 61 40 00    	jmp    *0x40613c
  401d16:	90                   	nop
  401d17:	90                   	nop

00401d18 <_abort>:
  401d18:	ff 25 14 61 40 00    	jmp    *0x406114
  401d1e:	90                   	nop
  401d1f:	90                   	nop

00401d20 <_memcpy>:
  401d20:	ff 25 2c 61 40 00    	jmp    *0x40612c
  401d26:	90                   	nop
  401d27:	90                   	nop

00401d28 <_calloc>:
  401d28:	ff 25 1c 61 40 00    	jmp    *0x40611c
  401d2e:	90                   	nop
  401d2f:	90                   	nop

00401d30 <_free>:
  401d30:	ff 25 24 61 40 00    	jmp    *0x406124
  401d36:	90                   	nop
  401d37:	90                   	nop

00401d38 <_SetUnhandledExceptionFilter@4>:
  401d38:	ff 25 e0 60 40 00    	jmp    *0x4060e0
  401d3e:	90                   	nop
  401d3f:	90                   	nop

00401d40 <_ExitProcess@4>:
  401d40:	ff 25 c8 60 40 00    	jmp    *0x4060c8
  401d46:	90                   	nop
  401d47:	90                   	nop

00401d48 <_GetModuleHandleA@4>:
  401d48:	ff 25 d0 60 40 00    	jmp    *0x4060d0
  401d4e:	90                   	nop
  401d4f:	90                   	nop

00401d50 <_GetProcAddress@8>:
  401d50:	ff 25 d4 60 40 00    	jmp    *0x4060d4
  401d56:	90                   	nop
  401d57:	90                   	nop

00401d58 <_VirtualQuery@12>:
  401d58:	ff 25 ec 60 40 00    	jmp    *0x4060ec
  401d5e:	90                   	nop
  401d5f:	90                   	nop

00401d60 <_VirtualProtect@16>:
  401d60:	ff 25 e8 60 40 00    	jmp    *0x4060e8
  401d66:	90                   	nop
  401d67:	90                   	nop

00401d68 <_EnterCriticalSection@4>:
  401d68:	ff 25 c4 60 40 00    	jmp    *0x4060c4
  401d6e:	90                   	nop
  401d6f:	90                   	nop

00401d70 <_TlsGetValue@4>:
  401d70:	ff 25 e4 60 40 00    	jmp    *0x4060e4
  401d76:	90                   	nop
  401d77:	90                   	nop

00401d78 <_GetLastError@0>:
  401d78:	ff 25 cc 60 40 00    	jmp    *0x4060cc
  401d7e:	90                   	nop
  401d7f:	90                   	nop

00401d80 <_LeaveCriticalSection@4>:
  401d80:	ff 25 dc 60 40 00    	jmp    *0x4060dc
  401d86:	90                   	nop
  401d87:	90                   	nop

00401d88 <_DeleteCriticalSection@4>:
  401d88:	ff 25 c0 60 40 00    	jmp    *0x4060c0
  401d8e:	90                   	nop
  401d8f:	90                   	nop

00401d90 <_InitializeCriticalSection@4>:
  401d90:	ff 25 d8 60 40 00    	jmp    *0x4060d8
  401d96:	90                   	nop
  401d97:	90                   	nop

00401d98 <_register_frame_ctor>:
  401d98:	55                   	push   %ebp
  401d99:	89 e5                	mov    %esp,%ebp
  401d9b:	83 ec 18             	sub    $0x18,%esp
  401d9e:	e8 3d f5 ff ff       	call   4012e0 <___gcc_register_frame>
  401da3:	c7 04 24 2c 13 40 00 	movl   $0x40132c,(%esp)
  401daa:	e8 11 f5 ff ff       	call   4012c0 <_atexit>
  401daf:	c9                   	leave  
  401db0:	c3                   	ret    
  401db1:	90                   	nop
  401db2:	90                   	nop
  401db3:	90                   	nop

00401db4 <__CTOR_LIST__>:
  401db4:	ff                   	(bad)  
  401db5:	ff                   	(bad)  
  401db6:	ff                   	(bad)  
  401db7:	ff                   	.byte 0xff

00401db8 <.ctors.65535>:
  401db8:	98                   	cwtl   
  401db9:	1d 40 00 00 00       	sbb    $0x40,%eax
	...

00401dc0 <__DTOR_LIST__>:
  401dc0:	ff                   	(bad)  
  401dc1:	ff                   	(bad)  
  401dc2:	ff                   	(bad)  
  401dc3:	ff 00                	incl   (%eax)
  401dc5:	00 00                	add    %al,(%eax)
	...
